target datalayout = "e-m:e-p270:32:32-p271:32:32-p272:64:64-i64:64-i128:128-f80:128-n8:16:32:64-S128"
target triple = "x86_64-pc-linux-gnu"

%struct.gres_state = type { i32, i32, ptr, ptr, i32 }
%struct.gres_job_state = type { i32, ptr, i16, i16, i64, i64, i64, i64, i64, i16, i16, i64, i32, ptr, ptr, ptr, ptr, i32, i64, i32, ptr, ptr, ptr, ptr, ptr, ptr }

; Function Attrs: nounwind uwtable
define dso_local zeroext i1 @gres_sched_test(ptr noundef %0, i32 noundef %1) #0 {
  %3 = alloca i1, align 1
  %4 = alloca ptr, align 8
  %5 = alloca i32, align 4
  %6 = alloca ptr, align 8
  %7 = alloca ptr, align 8
  %8 = alloca ptr, align 8
  %9 = alloca i8, align 1
  %10 = alloca i32, align 4
  store ptr %0, ptr %4, align 8
  store i32 %1, ptr %5, align 4
  call void @llvm.lifetime.start.p0(i64 8, ptr %6) #3
  call void @llvm.lifetime.start.p0(i64 8, ptr %7) #3
  call void @llvm.lifetime.start.p0(i64 8, ptr %8) #3
  call void @llvm.lifetime.start.p0(i64 1, ptr %9) #3
  store i8 1, ptr %9, align 1
  %11 = load ptr, ptr %4, align 8
  %12 = icmp ne ptr %11, null
  br i1 %12, label %16, label %13

13:                                               ; preds = %2
  %14 = load i8, ptr %9, align 1, !range !11, !noundef !12
  %15 = trunc i8 %14 to i1
  store i1 %15, ptr %3, align 1
  store i32 1, ptr %10, align 4
  br label %45

16:                                               ; preds = %2
  %17 = load ptr, ptr %4, align 8
  %18 = call ptr @slurm_list_iterator_create(ptr noundef %17)
  store ptr %18, ptr %6, align 8
  br label %19

19:                                               ; preds = %40, %16
  %20 = load ptr, ptr %6, align 8
  %21 = call ptr @slurm_list_next(ptr noundef %20)
  store ptr %21, ptr %7, align 8
  %22 = icmp ne ptr %21, null
  br i1 %22, label %23, label %41

23:                                               ; preds = %19
  %24 = load ptr, ptr %7, align 8
  %25 = getelementptr inbounds nuw %struct.gres_state, ptr %24, i32 0, i32 2
  %26 = load ptr, ptr %25, align 8
  store ptr %26, ptr %8, align 8
  %27 = load ptr, ptr %8, align 8
  %28 = getelementptr inbounds nuw %struct.gres_job_state, ptr %27, i32 0, i32 4
  %29 = load i64, ptr %28, align 8
  %30 = icmp ne i64 %29, 0
  br i1 %30, label %31, label %40

31:                                               ; preds = %23
  %32 = load ptr, ptr %8, align 8
  %33 = getelementptr inbounds nuw %struct.gres_job_state, ptr %32, i32 0, i32 4
  %34 = load i64, ptr %33, align 8
  %35 = load ptr, ptr %8, align 8
  %36 = getelementptr inbounds nuw %struct.gres_job_state, ptr %35, i32 0, i32 18
  %37 = load i64, ptr %36, align 8
  %38 = icmp ugt i64 %34, %37
  br i1 %38, label %39, label %40

39:                                               ; preds = %31
  store i8 0, ptr %9, align 1
  br label %41

40:                                               ; preds = %31, %23
  br label %19, !llvm.loop !14

41:                                               ; preds = %39, %19
  %42 = load ptr, ptr %6, align 8
  call void @slurm_list_iterator_destroy(ptr noundef %42)
  %43 = load i8, ptr %9, align 1, !range !11, !noundef !12
  %44 = trunc i8 %43 to i1
  store i1 %44, ptr %3, align 1
  store i32 1, ptr %10, align 4
  br label %45

45:                                               ; preds = %41, %13
  call void @llvm.lifetime.end.p0(i64 1, ptr %9) #3
  call void @llvm.lifetime.end.p0(i64 8, ptr %8) #3
  call void @llvm.lifetime.end.p0(i64 8, ptr %7) #3
  call void @llvm.lifetime.end.p0(i64 8, ptr %6) #3
  %46 = load i1, ptr %3, align 1
  ret i1 %46
}