; Function Attrs: nounwind uwtable
define dso_local noundef zeroext i1 @gres_sched_test(ptr noundef %0, i32 noundef %1) local_unnamed_addr #0 {
  %.not = icmp eq ptr %0, null
  br i1 %.not, label %17, label %3

3:                                                ; preds = %2
  %4 = tail call ptr @slurm_list_iterator_create(ptr noundef nonnull %0) #4
  %5 = tail call ptr @slurm_list_next(ptr noundef %4) #4
  %.not1416 = icmp eq ptr %5, null
  br i1 %.not1416, label %._crit_edge, label %.lr.ph

.lr.ph:                                           ; preds = %3, %15
  %6 = phi ptr [ %16, %15 ], [ %5, %3 ]
  %7 = getelementptr inbounds nuw i8, ptr %6, i64 8
  %8 = load ptr, ptr %7, align 8
  %9 = getelementptr inbounds nuw i8, ptr %8, i64 24
  %10 = load i64, ptr %9, align 8
  %.not15 = icmp eq i64 %10, 0
  br i1 %.not15, label %15, label %11

11:                                               ; preds = %.lr.ph
  %12 = getelementptr inbounds nuw i8, ptr %8, i64 128
  %13 = load i64, ptr %12, align 8
  %14 = icmp ugt i64 %10, %13
  br i1 %14, label %._crit_edge, label %15

15:                                               ; preds = %11, %.lr.ph
  %16 = tail call ptr @slurm_list_next(ptr noundef %4) #4
  %.not14 = icmp eq ptr %16, null
  br i1 %.not14, label %._crit_edge, label %.lr.ph, !llvm.loop !12

._crit_edge:                                      ; preds = %15, %11, %3
  %.not14.lcssa = phi i1 [ true, %3 ], [ false, %11 ], [ true, %15 ]
  tail call void @slurm_list_iterator_destroy(ptr noundef %4) #4
  br label %17

17:                                               ; preds = %2, %._crit_edge
  %.010 = phi i1 [ %.not14.lcssa, %._crit_edge ], [ true, %2 ]
  ret i1 %.010
}